target datalayout = "e-m:e-p270:32:32-p271:32:32-p272:64:64-i64:64-i128:128-f80:128-n8:16:32:64-S128"
target triple = "x86_64-pc-linux-gnu"

%struct.SeqStore_t = type { ptr, ptr, ptr, ptr, ptr, ptr, ptr, i64, i64, i32, i32 }
%struct.SeqDef_s = type { i32, i16, i16 }

; Function Attrs: nounwind uwtable
define internal i64 @ZSTD_countSeqStoreLiteralsBytes(ptr noundef %0) #0 {
  %2 = alloca ptr, align 8
  %3 = alloca i64, align 8
  %4 = alloca i64, align 8
  %5 = alloca i64, align 8
  %6 = alloca %struct.SeqDef_s, align 4
  store ptr %0, ptr %2, align 8, !tbaa !15
  call void @llvm.lifetime.start.p0(i64 8, ptr %3) #15
  store i64 0, ptr %3, align 8, !tbaa !3
  call void @llvm.lifetime.start.p0(i64 8, ptr %4) #15
  %7 = load ptr, ptr %2, align 8, !tbaa !15
  %8 = getelementptr inbounds nuw %struct.SeqStore_t, ptr %7, i32 0, i32 1
  %9 = load ptr, ptr %8, align 8, !tbaa !208
  %10 = load ptr, ptr %2, align 8, !tbaa !15
  %11 = getelementptr inbounds nuw %struct.SeqStore_t, ptr %10, i32 0, i32 0
  %12 = load ptr, ptr %11, align 8, !tbaa !203
  %13 = ptrtoint ptr %9 to i64
  %14 = ptrtoint ptr %12 to i64
  %15 = sub i64 %13, %14
  %16 = sdiv exact i64 %15, 8
  store i64 %16, ptr %4, align 8, !tbaa !3
  call void @llvm.lifetime.start.p0(i64 8, ptr %5) #15
  store i64 0, ptr %5, align 8, !tbaa !3
  br label %17

17:                                               ; preds = %47, %1
  %18 = load i64, ptr %5, align 8, !tbaa !3
  %19 = load i64, ptr %4, align 8, !tbaa !3
  %20 = icmp ult i64 %18, %19
  br i1 %20, label %21, label %50

21:                                               ; preds = %17
  call void @llvm.lifetime.start.p0(i64 8, ptr %6) #15
  %22 = load ptr, ptr %2, align 8, !tbaa !15
  %23 = getelementptr inbounds nuw %struct.SeqStore_t, ptr %22, i32 0, i32 0
  %24 = load ptr, ptr %23, align 8, !tbaa !203
  %25 = load i64, ptr %5, align 8, !tbaa !3
  %26 = getelementptr inbounds nuw %struct.SeqDef_s, ptr %24, i64 %25
  call void @llvm.memcpy.p0.p0.i64(ptr align 4 %6, ptr align 4 %26, i64 8, i1 false), !tbaa.struct !421
  %27 = getelementptr inbounds nuw %struct.SeqDef_s, ptr %6, i32 0, i32 1
  %28 = load i16, ptr %27, align 4, !tbaa !209
  %29 = zext i16 %28 to i64
  %30 = load i64, ptr %3, align 8, !tbaa !3
  %31 = add i64 %30, %29
  store i64 %31, ptr %3, align 8, !tbaa !3
  %32 = load i64, ptr %5, align 8, !tbaa !3
  %33 = load ptr, ptr %2, align 8, !tbaa !15
  %34 = getelementptr inbounds nuw %struct.SeqStore_t, ptr %33, i32 0, i32 10
  %35 = load i32, ptr %34, align 4, !tbaa !216
  %36 = zext i32 %35 to i64
  %37 = icmp eq i64 %32, %36
  br i1 %37, label %38, label %46

38:                                               ; preds = %21
  %39 = load ptr, ptr %2, align 8, !tbaa !15
  %40 = getelementptr inbounds nuw %struct.SeqStore_t, ptr %39, i32 0, i32 9
  %41 = load i32, ptr %40, align 8, !tbaa !215
  %42 = icmp eq i32 %41, 1
  br i1 %42, label %43, label %46

43:                                               ; preds = %38
  %44 = load i64, ptr %3, align 8, !tbaa !3
  %45 = add i64 %44, 65536
  store i64 %45, ptr %3, align 8, !tbaa !3
  br label %46

46:                                               ; preds = %43, %38, %21
  call void @llvm.lifetime.end.p0(i64 8, ptr %6) #15
  br label %47

47:                                               ; preds = %46
  %48 = load i64, ptr %5, align 8, !tbaa !3
  %49 = add i64 %48, 1
  store i64 %49, ptr %5, align 8, !tbaa !3
  br label %17, !llvm.loop !422

50:                                               ; preds = %17
  %51 = load i64, ptr %3, align 8, !tbaa !3
  call void @llvm.lifetime.end.p0(i64 8, ptr %5) #15
  call void @llvm.lifetime.end.p0(i64 8, ptr %4) #15
  call void @llvm.lifetime.end.p0(i64 8, ptr %3) #15
  ret i64 %51
}

; Function Attrs: nounwind uwtable
define internal void @ZSTD_deriveSeqStoreChunk(ptr noundef %0, ptr noundef %1, i64 noundef %2, i64 noundef %3) #0 {
  %5 = alloca ptr, align 8
  %6 = alloca ptr, align 8
  %7 = alloca i64, align 8
  %8 = alloca i64, align 8
  %9 = alloca i64, align 8
  store ptr %0, ptr %5, align 8, !tbaa !15
  store ptr %1, ptr %6, align 8, !tbaa !15
  store i64 %2, ptr %7, align 8, !tbaa !3
  store i64 %3, ptr %8, align 8, !tbaa !3
  %10 = load ptr, ptr %5, align 8, !tbaa !15
  %11 = load ptr, ptr %6, align 8, !tbaa !15
  call void @llvm.memcpy.p0.p0.i64(ptr align 8 %10, ptr align 8 %11, i64 80, i1 false), !tbaa.struct !413
  %12 = load i64, ptr %7, align 8, !tbaa !3
  %13 = icmp ugt i64 %12, 0
  br i1 %13, label %14, label %28

14:                                               ; preds = %4
  %15 = load ptr, ptr %6, align 8, !tbaa !15
  %16 = getelementptr inbounds nuw %struct.SeqStore_t, ptr %15, i32 0, i32 0
  %17 = load ptr, ptr %16, align 8, !tbaa !203
  %18 = load i64, ptr %7, align 8, !tbaa !3
  %19 = getelementptr inbounds nuw %struct.SeqDef_s, ptr %17, i64 %18
  %20 = load ptr, ptr %5, align 8, !tbaa !15
  %21 = getelementptr inbounds nuw %struct.SeqStore_t, ptr %20, i32 0, i32 1
  store ptr %19, ptr %21, align 8, !tbaa !208
  %22 = load ptr, ptr %5, align 8, !tbaa !15
  %23 = call i64 @ZSTD_countSeqStoreLiteralsBytes(ptr noundef %22)
  %24 = load ptr, ptr %5, align 8, !tbaa !15
  %25 = getelementptr inbounds nuw %struct.SeqStore_t, ptr %24, i32 0, i32 2
  %26 = load ptr, ptr %25, align 8, !tbaa !217
  %27 = getelementptr inbounds nuw i8, ptr %26, i64 %23
  store ptr %27, ptr %25, align 8, !tbaa !217
  br label %28

28:                                               ; preds = %14, %4
  %29 = load ptr, ptr %6, align 8, !tbaa !15
  %30 = getelementptr inbounds nuw %struct.SeqStore_t, ptr %29, i32 0, i32 9
  %31 = load i32, ptr %30, align 8, !tbaa !215
  %32 = icmp ne i32 %31, 0
  br i1 %32, label %33, label %58

33:                                               ; preds = %28
  %34 = load ptr, ptr %6, align 8, !tbaa !15
  %35 = getelementptr inbounds nuw %struct.SeqStore_t, ptr %34, i32 0, i32 10
  %36 = load i32, ptr %35, align 4, !tbaa !216
  %37 = zext i32 %36 to i64
  %38 = load i64, ptr %7, align 8, !tbaa !3
  %39 = icmp ult i64 %37, %38
  br i1 %39, label %47, label %40

40:                                               ; preds = %33
  %41 = load ptr, ptr %6, align 8, !tbaa !15
  %42 = getelementptr inbounds nuw %struct.SeqStore_t, ptr %41, i32 0, i32 10
  %43 = load i32, ptr %42, align 4, !tbaa !216
  %44 = zext i32 %43 to i64
  %45 = load i64, ptr %8, align 8, !tbaa !3
  %46 = icmp ugt i64 %44, %45
  br i1 %46, label %47, label %50

47:                                               ; preds = %40, %33
  %48 = load ptr, ptr %5, align 8, !tbaa !15
  %49 = getelementptr inbounds nuw %struct.SeqStore_t, ptr %48, i32 0, i32 9
  store i32 0, ptr %49, align 8, !tbaa !215
  br label %57

50:                                               ; preds = %40
  %51 = load i64, ptr %7, align 8, !tbaa !3
  %52 = trunc i64 %51 to i32
  %53 = load ptr, ptr %5, align 8, !tbaa !15
  %54 = getelementptr inbounds nuw %struct.SeqStore_t, ptr %53, i32 0, i32 10
  %55 = load i32, ptr %54, align 4, !tbaa !216
  %56 = sub i32 %55, %52
  store i32 %56, ptr %54, align 4, !tbaa !216
  br label %57

57:                                               ; preds = %50, %47
  br label %58

58:                                               ; preds = %57, %28
  %59 = load ptr, ptr %6, align 8, !tbaa !15
  %60 = getelementptr inbounds nuw %struct.SeqStore_t, ptr %59, i32 0, i32 0
  %61 = load ptr, ptr %60, align 8, !tbaa !203
  %62 = load i64, ptr %7, align 8, !tbaa !3
  %63 = getelementptr inbounds nuw %struct.SeqDef_s, ptr %61, i64 %62
  %64 = load ptr, ptr %5, align 8, !tbaa !15
  %65 = getelementptr inbounds nuw %struct.SeqStore_t, ptr %64, i32 0, i32 0
  store ptr %63, ptr %65, align 8, !tbaa !203
  %66 = load ptr, ptr %6, align 8, !tbaa !15
  %67 = getelementptr inbounds nuw %struct.SeqStore_t, ptr %66, i32 0, i32 0
  %68 = load ptr, ptr %67, align 8, !tbaa !203
  %69 = load i64, ptr %8, align 8, !tbaa !3
  %70 = getelementptr inbounds nuw %struct.SeqDef_s, ptr %68, i64 %69
  %71 = load ptr, ptr %5, align 8, !tbaa !15
  %72 = getelementptr inbounds nuw %struct.SeqStore_t, ptr %71, i32 0, i32 1
  store ptr %70, ptr %72, align 8, !tbaa !208
  %73 = load i64, ptr %8, align 8, !tbaa !3
  %74 = load ptr, ptr %6, align 8, !tbaa !15
  %75 = getelementptr inbounds nuw %struct.SeqStore_t, ptr %74, i32 0, i32 1
  %76 = load ptr, ptr %75, align 8, !tbaa !208
  %77 = load ptr, ptr %6, align 8, !tbaa !15
  %78 = getelementptr inbounds nuw %struct.SeqStore_t, ptr %77, i32 0, i32 0
  %79 = load ptr, ptr %78, align 8, !tbaa !203
  %80 = ptrtoint ptr %76 to i64
  %81 = ptrtoint ptr %79 to i64
  %82 = sub i64 %80, %81
  %83 = sdiv exact i64 %82, 8
  %84 = icmp eq i64 %73, %83
  br i1 %84, label %85, label %86

85:                                               ; preds = %58
  br label %96

86:                                               ; preds = %58
  call void @llvm.lifetime.start.p0(i64 8, ptr %9) #15
  %87 = load ptr, ptr %5, align 8, !tbaa !15
  %88 = call i64 @ZSTD_countSeqStoreLiteralsBytes(ptr noundef %87)
  store i64 %88, ptr %9, align 8, !tbaa !3
  %89 = load ptr, ptr %5, align 8, !tbaa !15
  %90 = getelementptr inbounds nuw %struct.SeqStore_t, ptr %89, i32 0, i32 2
  %91 = load ptr, ptr %90, align 8, !tbaa !217
  %92 = load i64, ptr %9, align 8, !tbaa !3
  %93 = getelementptr inbounds nuw i8, ptr %91, i64 %92
  %94 = load ptr, ptr %5, align 8, !tbaa !15
  %95 = getelementptr inbounds nuw %struct.SeqStore_t, ptr %94, i32 0, i32 3
  store ptr %93, ptr %95, align 8, !tbaa !218
  call void @llvm.lifetime.end.p0(i64 8, ptr %9) #15
  br label %96

96:                                               ; preds = %86, %85
  %97 = load i64, ptr %7, align 8, !tbaa !3
  %98 = load ptr, ptr %5, align 8, !tbaa !15
  %99 = getelementptr inbounds nuw %struct.SeqStore_t, ptr %98, i32 0, i32 4
  %100 = load ptr, ptr %99, align 8, !tbaa !205
  %101 = getelementptr inbounds nuw i8, ptr %100, i64 %97
  store ptr %101, ptr %99, align 8, !tbaa !205
  %102 = load i64, ptr %7, align 8, !tbaa !3
  %103 = load ptr, ptr %5, align 8, !tbaa !15
  %104 = getelementptr inbounds nuw %struct.SeqStore_t, ptr %103, i32 0, i32 5
  %105 = load ptr, ptr %104, align 8, !tbaa !207
  %106 = getelementptr inbounds nuw i8, ptr %105, i64 %102
  store ptr %106, ptr %104, align 8, !tbaa !207
  %107 = load i64, ptr %7, align 8, !tbaa !3
  %108 = load ptr, ptr %5, align 8, !tbaa !15
  %109 = getelementptr inbounds nuw %struct.SeqStore_t, ptr %108, i32 0, i32 6
  %110 = load ptr, ptr %109, align 8, !tbaa !206
  %111 = getelementptr inbounds nuw i8, ptr %110, i64 %107
  store ptr %111, ptr %109, align 8, !tbaa !206
  ret void
}