; Function Attrs: nofree norecurse nosync nounwind memory(read, argmem: readwrite, inaccessiblemem: none) uwtable
define internal fastcc void @ZSTD_deriveSeqStoreChunk(ptr noundef captures(none) initializes((0, 80)) %0, ptr noundef readonly captures(none) %1, i64 noundef %2, i64 noundef range(i64 0, -9223372036854775808) %3) unnamed_addr #22 {
  tail call void @llvm.memcpy.p0.p0.i64(ptr noundef nonnull align 8 dereferenceable(80) %0, ptr noundef nonnull align 8 dereferenceable(80) %1, i64 80, i1 false), !tbaa.struct !256
  %.not = icmp eq i64 %2, 0
  br i1 %.not, label %30, label %5

5:                                                ; preds = %4
  %6 = load ptr, ptr %1, align 8, !tbaa !184
  %7 = getelementptr inbounds nuw %struct.SeqDef_s, ptr %6, i64 %2
  %8 = load ptr, ptr %0, align 8, !tbaa !184
  %.not.i = icmp eq ptr %7, %8
  br i1 %.not.i, label %ZSTD_countSeqStoreLiteralsBytes.exit, label %.lr.ph.i

.lr.ph.i:                                         ; preds = %5
  %9 = ptrtoint ptr %7 to i64
  %10 = ptrtoint ptr %8 to i64
  %11 = sub i64 %9, %10
  %12 = ashr exact i64 %11, 3
  %13 = getelementptr inbounds nuw i8, ptr %0, i64 76
  %14 = load i32, ptr %13, align 4, !tbaa !197
  %15 = zext i32 %14 to i64
  %16 = getelementptr inbounds nuw i8, ptr %0, i64 72
  %umax.i = tail call i64 @llvm.umax.i64(i64 %12, i64 1)
  br label %17

17:                                               ; preds = %25, %.lr.ph.i
  %.014.i = phi i64 [ 0, %.lr.ph.i ], [ %.1.i, %25 ]
  %.01213.i = phi i64 [ 0, %.lr.ph.i ], [ %26, %25 ]
  %.sroa.3.0..sroa_idx.i = getelementptr inbounds nuw %struct.SeqDef_s, ptr %8, i64 %.01213.i, i32 1
  %.sroa.3.0.copyload.i = load i16, ptr %.sroa.3.0..sroa_idx.i, align 4, !tbaa !230
  %18 = zext i16 %.sroa.3.0.copyload.i to i64
  %19 = add i64 %.014.i, %18
  %20 = icmp eq i64 %.01213.i, %15
  br i1 %20, label %21, label %25

21:                                               ; preds = %17
  %22 = load i32, ptr %16, align 8, !tbaa !196
  %23 = icmp eq i32 %22, 1
  %24 = add i64 %19, 65536
  %spec.select.i = select i1 %23, i64 %24, i64 %19
  br label %25

25:                                               ; preds = %21, %17
  %.1.i = phi i64 [ %19, %17 ], [ %spec.select.i, %21 ]
  %26 = add nuw i64 %.01213.i, 1
  %exitcond.not.i = icmp eq i64 %26, %umax.i
  br i1 %exitcond.not.i, label %ZSTD_countSeqStoreLiteralsBytes.exit, label %17, !llvm.loop !258

ZSTD_countSeqStoreLiteralsBytes.exit:             ; preds = %25, %5
  %.0.lcssa.i = phi i64 [ 0, %5 ], [ %.1.i, %25 ]
  %27 = getelementptr inbounds nuw i8, ptr %0, i64 16
  %28 = load ptr, ptr %27, align 8, !tbaa !198
  %29 = getelementptr inbounds nuw i8, ptr %28, i64 %.0.lcssa.i
  store ptr %29, ptr %27, align 8, !tbaa !198
  br label %30

30:                                               ; preds = %ZSTD_countSeqStoreLiteralsBytes.exit, %4
  %31 = getelementptr inbounds nuw i8, ptr %1, i64 72
  %32 = load i32, ptr %31, align 8, !tbaa !196
  %.not35 = icmp eq i32 %32, 0
  br i1 %.not35, label %46, label %33

33:                                               ; preds = %30
  %34 = getelementptr inbounds nuw i8, ptr %1, i64 76
  %35 = load i32, ptr %34, align 4, !tbaa !197
  %36 = zext i32 %35 to i64
  %37 = icmp ugt i64 %2, %36
  %38 = icmp samesign ult i64 %3, %36
  %or.cond = select i1 %37, i1 true, i1 %38
  br i1 %or.cond, label %39, label %41

39:                                               ; preds = %33
  %40 = getelementptr inbounds nuw i8, ptr %0, i64 72
  store i32 0, ptr %40, align 8, !tbaa !196
  br label %46

41:                                               ; preds = %33
  %42 = trunc nuw i64 %2 to i32
  %43 = getelementptr inbounds nuw i8, ptr %0, i64 76
  %44 = load i32, ptr %43, align 4, !tbaa !197
  %45 = sub i32 %44, %42
  store i32 %45, ptr %43, align 4, !tbaa !197
  br label %46

46:                                               ; preds = %39, %41, %30
  %47 = load ptr, ptr %1, align 8, !tbaa !184
  %48 = getelementptr inbounds nuw %struct.SeqDef_s, ptr %47, i64 %2
  store ptr %48, ptr %0, align 8, !tbaa !184
  %49 = load ptr, ptr %1, align 8, !tbaa !184
  %50 = getelementptr inbounds nuw %struct.SeqDef_s, ptr %49, i64 %3
  %51 = getelementptr inbounds nuw i8, ptr %0, i64 8
  store ptr %50, ptr %51, align 8, !tbaa !188
  %52 = getelementptr inbounds nuw i8, ptr %1, i64 8
  %53 = load ptr, ptr %52, align 8, !tbaa !188
  %54 = ptrtoint ptr %53 to i64
  %55 = ptrtoint ptr %49 to i64
  %56 = sub i64 %54, %55
  %57 = ashr exact i64 %56, 3
  %58 = icmp eq i64 %3, %57
  br i1 %58, label %82, label %59

59:                                               ; preds = %46
  %.not.i36 = icmp eq ptr %50, %48
  br i1 %.not.i36, label %ZSTD_countSeqStoreLiteralsBytes.exit47, label %.lr.ph.i37

.lr.ph.i37:                                       ; preds = %59
  %60 = ptrtoint ptr %50 to i64
  %61 = ptrtoint ptr %48 to i64
  %62 = sub i64 %60, %61
  %63 = ashr exact i64 %62, 3
  %64 = getelementptr inbounds nuw i8, ptr %0, i64 76
  %65 = load i32, ptr %64, align 4, !tbaa !197
  %66 = zext i32 %65 to i64
  %67 = getelementptr inbounds nuw i8, ptr %0, i64 72
  %umax.i38 = tail call i64 @llvm.umax.i64(i64 %63, i64 1)
  br label %68

68:                                               ; preds = %76, %.lr.ph.i37
  %.014.i39 = phi i64 [ 0, %.lr.ph.i37 ], [ %.1.i43, %76 ]
  %.01213.i40 = phi i64 [ 0, %.lr.ph.i37 ], [ %77, %76 ]
  %.sroa.3.0..sroa_idx.i41 = getelementptr inbounds nuw %struct.SeqDef_s, ptr %48, i64 %.01213.i40, i32 1
  %.sroa.3.0.copyload.i42 = load i16, ptr %.sroa.3.0..sroa_idx.i41, align 4, !tbaa !230
  %69 = zext i16 %.sroa.3.0.copyload.i42 to i64
  %70 = add i64 %.014.i39, %69
  %71 = icmp eq i64 %.01213.i40, %66
  br i1 %71, label %72, label %76

72:                                               ; preds = %68
  %73 = load i32, ptr %67, align 8, !tbaa !196
  %74 = icmp eq i32 %73, 1
  %75 = add i64 %70, 65536
  %spec.select.i46 = select i1 %74, i64 %75, i64 %70
  br label %76

76:                                               ; preds = %72, %68
  %.1.i43 = phi i64 [ %70, %68 ], [ %spec.select.i46, %72 ]
  %77 = add nuw i64 %.01213.i40, 1
  %exitcond.not.i44 = icmp eq i64 %77, %umax.i38
  br i1 %exitcond.not.i44, label %ZSTD_countSeqStoreLiteralsBytes.exit47, label %68, !llvm.loop !258

ZSTD_countSeqStoreLiteralsBytes.exit47:           ; preds = %76, %59
  %.0.lcssa.i45 = phi i64 [ 0, %59 ], [ %.1.i43, %76 ]
  %78 = getelementptr inbounds nuw i8, ptr %0, i64 16
  %79 = load ptr, ptr %78, align 8, !tbaa !198
  %80 = getelementptr inbounds nuw i8, ptr %79, i64 %.0.lcssa.i45
  %81 = getelementptr inbounds nuw i8, ptr %0, i64 24
  store ptr %80, ptr %81, align 8, !tbaa !199
  br label %82

82:                                               ; preds = %46, %ZSTD_countSeqStoreLiteralsBytes.exit47
  %83 = getelementptr inbounds nuw i8, ptr %0, i64 32
  %84 = load ptr, ptr %83, align 8, !tbaa !185
  %85 = getelementptr inbounds nuw i8, ptr %84, i64 %2
  store ptr %85, ptr %83, align 8, !tbaa !185
  %86 = getelementptr inbounds nuw i8, ptr %0, i64 40
  %87 = load ptr, ptr %86, align 8, !tbaa !187
  %88 = getelementptr inbounds nuw i8, ptr %87, i64 %2
  store ptr %88, ptr %86, align 8, !tbaa !187
  %89 = getelementptr inbounds nuw i8, ptr %0, i64 48
  %90 = load ptr, ptr %89, align 8, !tbaa !186
  %91 = getelementptr inbounds nuw i8, ptr %90, i64 %2
  store ptr %91, ptr %89, align 8, !tbaa !186
  ret void
}